; Function Attrs: nounwind uwtable
define range(i32 -1, 1) i32 @H5Pget_chunk_opts(i64 noundef %0, ptr noundef writeonly captures(address_is_null) %1) local_unnamed_addr #0 {
  %3 = alloca %struct.H5O_layout_t, align 8
  %4 = alloca %struct.H5CX_node_t, align 8
  call void @llvm.lifetime.start.p0(i64 2256, ptr nonnull %3) #12
  call void @llvm.lifetime.start.p0(i64 480, ptr nonnull %4) #12
  call void @llvm.memset.p0.i64(ptr noundef nonnull align 8 dereferenceable(480) %4, i8 0, i64 480, i1 false)
  %5 = load i8, ptr @H5_libinit_g, align 1, !tbaa !3, !range !7, !noundef !8
  %6 = trunc nuw i8 %5 to i1
  %7 = load i8, ptr @H5_libterm_g, align 1, !range !7
  %8 = trunc nuw i8 %7 to i1
  %9 = select i1 %6, i1 true, i1 %8
  br i1 %9, label %17, label %10, !prof !9

10:                                               ; preds = %2
  %11 = tail call i32 @H5_init_library() #12
  %12 = icmp slt i32 %11, 0
  br i1 %12, label %13, label %._crit_edge, !prof !23

._crit_edge:                                      ; preds = %10
  %.pre = load i8, ptr @H5_libterm_g, align 1, !range !7
  br label %17

13:                                               ; preds = %10
  %14 = load i64, ptr @H5E_FUNC_g, align 8, !tbaa !10
  %15 = load i64, ptr @H5E_CANTINIT_g, align 8, !tbaa !10
  %16 = tail call i32 (ptr, ptr, i32, i64, i64, ptr, ...) @H5E_printf_stack(ptr noundef nonnull @.str.1, ptr noundef nonnull @__func__.H5Pget_chunk_opts, i32 noundef 2544, i64 noundef %14, i64 noundef %15, ptr noundef nonnull @.str.2) #12
  br label %.thread27

17:                                               ; preds = %._crit_edge, %2
  %18 = phi i8 [ %.pre, %._crit_edge ], [ %7, %2 ]
  %19 = load i8, ptr @H5P_init_g, align 1, !tbaa !3, !range !7, !noundef !8
  %20 = trunc nuw i8 %19 to i1
  %21 = trunc nuw i8 %18 to i1
  %22 = select i1 %20, i1 true, i1 %21
  br i1 %22, label %30, label %23, !prof !9

23:                                               ; preds = %17
  store i8 1, ptr @H5P_init_g, align 1, !tbaa !3
  %24 = tail call i32 @H5P__init_package() #12
  %25 = icmp slt i32 %24, 0
  br i1 %25, label %26, label %30, !prof !24

26:                                               ; preds = %23
  store i8 0, ptr @H5P_init_g, align 1, !tbaa !3
  %27 = load i64, ptr @H5E_FUNC_g, align 8, !tbaa !10
  %28 = load i64, ptr @H5E_CANTINIT_g, align 8, !tbaa !10
  %29 = tail call i32 (ptr, ptr, i32, i64, i64, ptr, ...) @H5E_printf_stack(ptr noundef nonnull @.str.1, ptr noundef nonnull @__func__.H5Pget_chunk_opts, i32 noundef 2544, i64 noundef %27, i64 noundef %28, ptr noundef nonnull @.str.3) #12
  br label %.thread27

30:                                               ; preds = %17, %23
  %31 = call i32 @H5CX_push(ptr noundef nonnull %4) #12
  %32 = icmp slt i32 %31, 0
  br i1 %32, label %33, label %37, !prof !23

33:                                               ; preds = %30
  %34 = load i64, ptr @H5E_FUNC_g, align 8, !tbaa !10
  %35 = load i64, ptr @H5E_CANTSET_g, align 8, !tbaa !10
  %36 = call i32 (ptr, ptr, i32, i64, i64, ptr, ...) @H5E_printf_stack(ptr noundef nonnull @.str.1, ptr noundef nonnull @__func__.H5Pget_chunk_opts, i32 noundef 2544, i64 noundef %34, i64 noundef %35, ptr noundef nonnull @.str.4) #12
  br label %.thread27

37:                                               ; preds = %30
  %38 = call i32 @H5E_clear_stack() #12
  %39 = load i64, ptr @H5P_CLS_DATASET_CREATE_ID_g, align 8, !tbaa !10
  %40 = call ptr @H5P_object_verify(i64 noundef %0, i64 noundef %39, i1 noundef zeroext true) #12
  %41 = icmp eq ptr %40, null
  br i1 %41, label %42, label %46, !prof !25

42:                                               ; preds = %37
  %43 = load i64, ptr @H5E_ID_g, align 8, !tbaa !10
  %44 = load i64, ptr @H5E_BADID_g, align 8, !tbaa !10
  %45 = call i32 (ptr, ptr, i32, i64, i64, ptr, ...) @H5E_printf_stack(ptr noundef nonnull @.str.1, ptr noundef nonnull @__func__.H5Pget_chunk_opts, i32 noundef 2548, i64 noundef %43, i64 noundef %44, ptr noundef nonnull @.str.6) #12
  br label %.thread33

46:                                               ; preds = %37
  %47 = call i32 @H5P_peek(ptr noundef nonnull %40, ptr noundef nonnull @.str.9, ptr noundef nonnull %3) #12
  %48 = icmp slt i32 %47, 0
  br i1 %48, label %49, label %53, !prof !25

49:                                               ; preds = %46
  %50 = load i64, ptr @H5E_PLIST_g, align 8, !tbaa !10
  %51 = load i64, ptr @H5E_BADVALUE_g, align 8, !tbaa !10
  %52 = call i32 (ptr, ptr, i32, i64, i64, ptr, ...) @H5E_printf_stack(ptr noundef nonnull @.str.1, ptr noundef nonnull @__func__.H5Pget_chunk_opts, i32 noundef 2552, i64 noundef %50, i64 noundef %51, ptr noundef nonnull @.str.10) #12
  br label %.thread33

53:                                               ; preds = %46
  %54 = load i32, ptr %3, align 8, !tbaa !27
  %.not = icmp eq i32 %54, 2
  br i1 %.not, label %59, label %55, !prof !31

55:                                               ; preds = %53
  %56 = load i64, ptr @H5E_ARGS_g, align 8, !tbaa !10
  %57 = load i64, ptr @H5E_BADVALUE_g, align 8, !tbaa !10
  %58 = call i32 (ptr, ptr, i32, i64, i64, ptr, ...) @H5E_printf_stack(ptr noundef nonnull @.str.1, ptr noundef nonnull @__func__.H5Pget_chunk_opts, i32 noundef 2554, i64 noundef %56, i64 noundef %57, ptr noundef nonnull @.str.17) #12
  br label %.thread33

59:                                               ; preds = %53
  %.not17 = icmp eq ptr %1, null
  br i1 %.not17, label %66, label %60

60:                                               ; preds = %59
  %61 = getelementptr inbounds nuw i8, ptr %3, i64 20
  %62 = load i8, ptr %61, align 4, !tbaa !32
  %63 = shl i8 %62, 1
  %64 = and i8 %63, 2
  %spec.store.select = zext nneg i8 %64 to i32
  store i32 %spec.store.select, ptr %1, align 4
  br label %66

.thread33:                                        ; preds = %55, %49, %42
  %65 = call i32 @H5CX_pop(i1 noundef zeroext true) #12
  br label %.thread27

66:                                               ; preds = %60, %59
  %67 = call i32 @H5CX_pop(i1 noundef zeroext true) #12
  br label %69

.thread27:                                        ; preds = %33, %26, %13, %.thread33
  %68 = call i32 @H5E_dump_api_stack() #12
  br label %69

69:                                               ; preds = %66, %.thread27
  %.0142230 = phi i32 [ -1, %.thread27 ], [ 0, %66 ]
  call void @llvm.lifetime.end.p0(i64 480, ptr nonnull %4) #12
  call void @llvm.lifetime.end.p0(i64 2256, ptr nonnull %3) #12
  ret i32 %.0142230
}